; Function Attrs: mustprogress uwtable
define hidden noundef zeroext i1 @_ZN18OpenImageIO_v2_6_08RLAInput4openERKNSt7__cxx1112basic_stringIcSt11char_traitsIcESaIcEEERNS_9ImageSpecE(ptr noundef nonnull align 8 dereferenceable(1024) %this, ptr noundef nonnull align 8 dereferenceable(32) %name, ptr noundef nonnull align 8 dereferenceable(160) %newspec) unnamed_addr #5 align 2 {
entry:
  %agg.tmp = alloca %"class.OpenImageIO_v2_6_0::basic_string_view", align 8
  %m_filename = getelementptr inbounds i8, ptr %this, i64 184
  %call = tail call noundef nonnull align 8 dereferenceable(32) ptr @_ZNSt7__cxx1112basic_stringIcSt11char_traitsIcESaIcEEaSERKS4_(ptr noundef nonnull align 8 dereferenceable(32) %m_filename, ptr noundef nonnull align 8 dereferenceable(32) %name)
  %call.i = tail call noundef ptr @_ZNKSt7__cxx1112basic_stringIcSt11char_traitsIcESaIcEE4dataEv(ptr noundef nonnull align 8 dereferenceable(32) %name) #21
  store ptr %call.i, ptr %agg.tmp, align 8
  %m_len.i = getelementptr inbounds i8, ptr %agg.tmp, i64 8
  %call2.i = tail call noundef i64 @_ZNKSt7__cxx1112basic_stringIcSt11char_traitsIcESaIcEE4sizeEv(ptr noundef nonnull align 8 dereferenceable(32) %name) #21
  store i64 %call2.i, ptr %m_len.i, align 8
  %call2 = call noundef zeroext i1 @_ZN18OpenImageIO_v2_6_010ImageInput19ioproxy_use_or_openENS_17basic_string_viewIcSt11char_traitsIcEEE(ptr noundef nonnull align 8 dereferenceable(184) %this, ptr noundef nonnull %agg.tmp)
  br i1 %call2, label %if.end, label %return

if.end:                                           ; preds = %entry
  %call3 = call noundef zeroext i1 @_ZN18OpenImageIO_v2_6_010ImageInput6ioseekEli(ptr noundef nonnull align 8 dereferenceable(184) %this, i64 noundef 0, i32 noundef 0)
  %m_subimage = getelementptr inbounds i8, ptr %this, i64 984
  store i32 1, ptr %m_subimage, align 8
  %call4 = call noundef zeroext i1 @_ZN18OpenImageIO_v2_6_08RLAInput13seek_subimageEii(ptr noundef nonnull align 8 dereferenceable(1024) %this, i32 noundef 0, i32 noundef 0)
  %m_spec.i = getelementptr inbounds i8, ptr %this, i64 8
  call void @llvm.memcpy.p0.p0.i64(ptr noundef nonnull align 8 dereferenceable(72) %newspec, ptr noundef nonnull align 8 dereferenceable(72) %m_spec.i, i64 72, i1 false)
  %channelformats.i = getelementptr inbounds i8, ptr %newspec, i64 72
  %channelformats3.i = getelementptr inbounds i8, ptr %this, i64 80
  %call.i2 = call noundef nonnull align 8 dereferenceable(24) ptr @_ZNSt6vectorIN18OpenImageIO_v2_6_08TypeDescESaIS1_EEaSERKS3_(ptr noundef nonnull align 8 dereferenceable(24) %channelformats.i, ptr noundef nonnull align 8 dereferenceable(24) %channelformats3.i)
  %channelnames.i = getelementptr inbounds i8, ptr %newspec, i64 96
  %channelnames4.i = getelementptr inbounds i8, ptr %this, i64 104
  %call5.i = call noundef nonnull align 8 dereferenceable(24) ptr @_ZNSt6vectorINSt7__cxx1112basic_stringIcSt11char_traitsIcESaIcEEESaIS5_EEaSERKS7_(ptr noundef nonnull align 8 dereferenceable(24) %channelnames.i, ptr noundef nonnull align 8 dereferenceable(24) %channelnames4.i)
  %alpha_channel.i = getelementptr inbounds i8, ptr %newspec, i64 120
  %alpha_channel6.i = getelementptr inbounds i8, ptr %this, i64 128
  call void @llvm.memcpy.p0.p0.i64(ptr noundef nonnull align 8 dereferenceable(9) %alpha_channel.i, ptr noundef nonnull align 8 dereferenceable(9) %alpha_channel6.i, i64 9, i1 false)
  %extra_attribs.i = getelementptr inbounds i8, ptr %newspec, i64 136
  %extra_attribs7.i = getelementptr inbounds i8, ptr %this, i64 144
  %call.i.i = call noundef nonnull align 8 dereferenceable(24) ptr @_ZNSt6vectorIN18OpenImageIO_v2_6_010ParamValueESaIS1_EEaSERKS3_(ptr noundef nonnull align 8 dereferenceable(24) %extra_attribs.i, ptr noundef nonnull align 8 dereferenceable(24) %extra_attribs7.i)
  br label %return

return:                                           ; preds = %entry, %if.end
  %retval.0 = phi i1 [ %call4, %if.end ], [ false, %entry ]
  ret i1 %retval.0
}